
branch_not_taken:     file format elf64-littleaarch64


Disassembly of section .text:

000000000040010c <start>:
  40010c:	d2800020 	mov	x0, #0x1                   	// #1
  400110:	d2800041 	mov	x1, #0x2                   	// #2
  400114:	d503201f 	nop
  400118:	d503201f 	nop
  40011c:	eb010003 	subs	x3, x0, x1
  400120:	d503201f 	nop
  400124:	d503201f 	nop
  400128:	54000220 	b.eq	40016c <.helper>  // b.none

000000000040012c <.goback>:
  40012c:	d503201f 	nop
  400130:	d503201f 	nop
  400134:	d503201f 	nop
  400138:	ca0500a5 	eor	x5, x5, x5
  40013c:	d503201f 	nop
  400140:	d503201f 	nop
  400144:	d503201f 	nop
  400148:	aa2503e5 	mvn	x5, x5
  40014c:	d503201f 	nop
  400150:	d503201f 	nop
  400154:	d503201f 	nop
  400158:	f80000a4 	stur	x4, [x5]
  40015c:	d503201f 	nop
  400160:	d503201f 	nop
  400164:	d503201f 	nop
  400168:	d65f03c0 	ret

000000000040016c <.helper>:
  40016c:	d503201f 	nop
  400170:	d503201f 	nop
  400174:	d503201f 	nop
  400178:	d29fffe0 	mov	x0, #0xffff                	// #65535
  40017c:	d2948aa1 	mov	x1, #0xa455                	// #42069
  400180:	17ffffeb 	b	40012c <.goback>
